target datalayout = "e-m:e-p270:32:32-p271:32:32-p272:64:64-i64:64-i128:128-f80:128-n8:16:32:64-S128"
target triple = "x86_64-pc-linux-gnu"

%struct.H5D_farray_filt_elmt_t = type { i64, i32, i32 }
%struct.H5O_layout_chunk_t = type { i32, i8, i32, [33 x i32], i32, i32, i64, i64, [33 x i64], [33 x i64], [33 x i64], [33 x i64], %union.anon.0 }
%union.anon.0 = type { %struct.H5O_layout_chunk_earray_t }
%struct.H5O_layout_chunk_earray_t = type { %struct.anon.1, i32, [33 x i32], [33 x i64], [33 x i64] }
%struct.anon.1 = type { i8, i8, i8, i8, i8 }
%struct.H5D_chunk_common_ud_t = type { ptr, ptr, ptr }
%struct.H5D_farray_it_ud_t = type { %struct.H5D_chunk_common_ud_t, %struct.H5D_chunk_rec_t, i8, ptr, ptr }
%struct.H5D_chunk_rec_t = type { [33 x i64], i32, i32, i64 }

@.str.2 = private unnamed_addr constant [103 x i8] c"generated/home/dtcxzyw/WorkSpace/Projects/compilers/llvm-opt-benchmark/bench/hdf5/hdf5/src/H5Dfarray.c\00", align 1
@H5E_DATASET_g = external global i64, align 8
@__func__.H5D__farray_idx_iterate_cb = private unnamed_addr constant [27 x i8] c"H5D__farray_idx_iterate_cb\00", align 1
@H5E_CALLBACK_g = external global i64, align 8
@.str.31 = private unnamed_addr constant [43 x i8] c"failure in generic chunk iterator callback\00", align 1

; Function Attrs: nounwind uwtable
define internal i32 @H5D__farray_idx_iterate_cb(i64 noundef %0, ptr noundef %1, ptr noundef %2) #0 {
  %4 = alloca i64, align 8
  %5 = alloca ptr, align 8
  %6 = alloca ptr, align 8
  %7 = alloca ptr, align 8
  %8 = alloca i32, align 4
  %9 = alloca i32, align 4
  %10 = alloca i32, align 4
  %11 = alloca ptr, align 8
  store i64 %0, ptr %4, align 8
  store ptr %1, ptr %5, align 8
  store ptr %2, ptr %6, align 8
  %12 = load ptr, ptr %6, align 8
  store ptr %12, ptr %7, align 8
  store i32 0, ptr %10, align 4
  %13 = load ptr, ptr %7, align 8
  %14 = getelementptr inbounds %struct.H5D_farray_it_ud_t, ptr %13, i32 0, i32 2
  %15 = load i8, ptr %14, align 8
  %16 = trunc i8 %15 to i1
  br i1 %16, label %17, label %37

17:                                               ; preds = %3
  %18 = load ptr, ptr %5, align 8
  store ptr %18, ptr %11, align 8
  %19 = load ptr, ptr %11, align 8
  %20 = getelementptr inbounds %struct.H5D_farray_filt_elmt_t, ptr %19, i32 0, i32 0
  %21 = load i64, ptr %20, align 8
  %22 = load ptr, ptr %7, align 8
  %23 = getelementptr inbounds %struct.H5D_farray_it_ud_t, ptr %22, i32 0, i32 1
  %24 = getelementptr inbounds %struct.H5D_chunk_rec_t, ptr %23, i32 0, i32 3
  store i64 %21, ptr %24, align 8
  %25 = load ptr, ptr %11, align 8
  %26 = getelementptr inbounds %struct.H5D_farray_filt_elmt_t, ptr %25, i32 0, i32 1
  %27 = load i32, ptr %26, align 8
  %28 = load ptr, ptr %7, align 8
  %29 = getelementptr inbounds %struct.H5D_farray_it_ud_t, ptr %28, i32 0, i32 1
  %30 = getelementptr inbounds %struct.H5D_chunk_rec_t, ptr %29, i32 0, i32 1
  store i32 %27, ptr %30, align 8
  %31 = load ptr, ptr %11, align 8
  %32 = getelementptr inbounds %struct.H5D_farray_filt_elmt_t, ptr %31, i32 0, i32 2
  %33 = load i32, ptr %32, align 4
  %34 = load ptr, ptr %7, align 8
  %35 = getelementptr inbounds %struct.H5D_farray_it_ud_t, ptr %34, i32 0, i32 1
  %36 = getelementptr inbounds %struct.H5D_chunk_rec_t, ptr %35, i32 0, i32 2
  store i32 %33, ptr %36, align 4
  br label %43

37:                                               ; preds = %3
  %38 = load ptr, ptr %5, align 8
  %39 = load i64, ptr %38, align 8
  %40 = load ptr, ptr %7, align 8
  %41 = getelementptr inbounds %struct.H5D_farray_it_ud_t, ptr %40, i32 0, i32 1
  %42 = getelementptr inbounds %struct.H5D_chunk_rec_t, ptr %41, i32 0, i32 3
  store i64 %39, ptr %42, align 8
  br label %43

43:                                               ; preds = %37, %17
  %44 = load ptr, ptr %7, align 8
  %45 = getelementptr inbounds %struct.H5D_farray_it_ud_t, ptr %44, i32 0, i32 1
  %46 = getelementptr inbounds %struct.H5D_chunk_rec_t, ptr %45, i32 0, i32 3
  %47 = load i64, ptr %46, align 8
  %48 = icmp ne i64 %47, -1
  br i1 %48, label %49, label %67

49:                                               ; preds = %43
  %50 = load ptr, ptr %7, align 8
  %51 = getelementptr inbounds %struct.H5D_farray_it_ud_t, ptr %50, i32 0, i32 3
  %52 = load ptr, ptr %51, align 8
  %53 = load ptr, ptr %7, align 8
  %54 = getelementptr inbounds %struct.H5D_farray_it_ud_t, ptr %53, i32 0, i32 1
  %55 = load ptr, ptr %7, align 8
  %56 = getelementptr inbounds %struct.H5D_farray_it_ud_t, ptr %55, i32 0, i32 4
  %57 = load ptr, ptr %56, align 8
  %58 = call i32 %52(ptr noundef %54, ptr noundef %57)
  store i32 %58, ptr %10, align 4
  %59 = icmp slt i32 %58, 0
  br i1 %59, label %60, label %66

60:                                               ; preds = %49
  br label %61

61:                                               ; preds = %60
  %62 = load i64, ptr @H5E_DATASET_g, align 8
  %63 = load i64, ptr @H5E_CALLBACK_g, align 8
  %64 = call i32 (ptr, ptr, i32, i64, i64, ptr, ...) @H5E_printf_stack(ptr noundef @.str.2, ptr noundef @__func__.H5D__farray_idx_iterate_cb, i32 noundef 1159, i64 noundef %62, i64 noundef %63, ptr noundef @.str.31)
  br label %65

65:                                               ; preds = %61
  br label %66

66:                                               ; preds = %65, %49
  br label %67

67:                                               ; preds = %66, %43
  %68 = load ptr, ptr %7, align 8
  %69 = getelementptr inbounds %struct.H5D_farray_it_ud_t, ptr %68, i32 0, i32 0
  %70 = getelementptr inbounds %struct.H5D_chunk_common_ud_t, ptr %69, i32 0, i32 0
  %71 = load ptr, ptr %70, align 8
  %72 = getelementptr inbounds %struct.H5O_layout_chunk_t, ptr %71, i32 0, i32 2
  %73 = load i32, ptr %72, align 8
  %74 = sub i32 %73, 1
  store i32 %74, ptr %8, align 4
  %75 = load i32, ptr %8, align 4
  %76 = sub i32 %75, 1
  store i32 %76, ptr %9, align 4
  br label %77

77:                                               ; preds = %116, %67
  %78 = load i32, ptr %9, align 4
  %79 = icmp sge i32 %78, 0
  br i1 %79, label %80, label %117

80:                                               ; preds = %77
  %81 = load ptr, ptr %7, align 8
  %82 = getelementptr inbounds %struct.H5D_farray_it_ud_t, ptr %81, i32 0, i32 1
  %83 = getelementptr inbounds %struct.H5D_chunk_rec_t, ptr %82, i32 0, i32 0
  %84 = load i32, ptr %9, align 4
  %85 = sext i32 %84 to i64
  %86 = getelementptr inbounds [33 x i64], ptr %83, i64 0, i64 %85
  %87 = load i64, ptr %86, align 8
  %88 = add i64 %87, 1
  store i64 %88, ptr %86, align 8
  %89 = load ptr, ptr %7, align 8
  %90 = getelementptr inbounds %struct.H5D_farray_it_ud_t, ptr %89, i32 0, i32 1
  %91 = getelementptr inbounds %struct.H5D_chunk_rec_t, ptr %90, i32 0, i32 0
  %92 = load i32, ptr %9, align 4
  %93 = sext i32 %92 to i64
  %94 = getelementptr inbounds [33 x i64], ptr %91, i64 0, i64 %93
  %95 = load i64, ptr %94, align 8
  %96 = load ptr, ptr %7, align 8
  %97 = getelementptr inbounds %struct.H5D_farray_it_ud_t, ptr %96, i32 0, i32 0
  %98 = getelementptr inbounds %struct.H5D_chunk_common_ud_t, ptr %97, i32 0, i32 0
  %99 = load ptr, ptr %98, align 8
  %100 = getelementptr inbounds %struct.H5O_layout_chunk_t, ptr %99, i32 0, i32 9
  %101 = load i32, ptr %9, align 4
  %102 = sext i32 %101 to i64
  %103 = getelementptr inbounds [33 x i64], ptr %100, i64 0, i64 %102
  %104 = load i64, ptr %103, align 8
  %105 = icmp uge i64 %95, %104
  br i1 %105, label %106, label %115

106:                                              ; preds = %80
  %107 = load ptr, ptr %7, align 8
  %108 = getelementptr inbounds %struct.H5D_farray_it_ud_t, ptr %107, i32 0, i32 1
  %109 = getelementptr inbounds %struct.H5D_chunk_rec_t, ptr %108, i32 0, i32 0
  %110 = load i32, ptr %9, align 4
  %111 = sext i32 %110 to i64
  %112 = getelementptr inbounds [33 x i64], ptr %109, i64 0, i64 %111
  store i64 0, ptr %112, align 8
  %113 = load i32, ptr %9, align 4
  %114 = add nsw i32 %113, -1
  store i32 %114, ptr %9, align 4
  br label %116

115:                                              ; preds = %80
  br label %117

116:                                              ; preds = %106
  br label %77

117:                                              ; preds = %115, %77
  %118 = load i32, ptr %10, align 4
  ret i32 %118
}