; Function Attrs: nounwind uwtable
define internal i32 @H5D__farray_idx_iterate_cb(i64 %0, ptr nocapture noundef readonly %1, ptr noundef %2) #1 {
  %4 = getelementptr inbounds i8, ptr %2, i64 304
  %5 = load i8, ptr %4, align 8
  %6 = trunc i8 %5 to i1
  %7 = load i64, ptr %1, align 8
  %8 = getelementptr inbounds i8, ptr %2, i64 296
  store i64 %7, ptr %8, align 8
  br i1 %6, label %9, label %16

9:                                                ; preds = %3
  %10 = getelementptr inbounds i8, ptr %1, i64 8
  %11 = load i32, ptr %10, align 8
  %12 = getelementptr inbounds i8, ptr %2, i64 288
  store i32 %11, ptr %12, align 8
  %13 = getelementptr inbounds i8, ptr %1, i64 12
  %14 = load i32, ptr %13, align 4
  %15 = getelementptr inbounds i8, ptr %2, i64 292
  store i32 %14, ptr %15, align 4
  br label %16

16:                                               ; preds = %3, %9
  %17 = getelementptr inbounds i8, ptr %2, i64 24
  %.not = icmp eq i64 %7, -1
  br i1 %.not, label %29, label %18

18:                                               ; preds = %16
  %19 = getelementptr inbounds i8, ptr %2, i64 312
  %20 = load ptr, ptr %19, align 8
  %21 = getelementptr inbounds i8, ptr %2, i64 320
  %22 = load ptr, ptr %21, align 8
  %23 = tail call i32 %20(ptr noundef nonnull %17, ptr noundef %22) #11
  %24 = icmp slt i32 %23, 0
  br i1 %24, label %25, label %29

25:                                               ; preds = %18
  %26 = load i64, ptr @H5E_DATASET_g, align 8
  %27 = load i64, ptr @H5E_CALLBACK_g, align 8
  %28 = tail call i32 (ptr, ptr, i32, i64, i64, ptr, ...) @H5E_printf_stack(ptr noundef nonnull @.str.2, ptr noundef nonnull @__func__.H5D__farray_idx_iterate_cb, i32 noundef 1159, i64 noundef %26, i64 noundef %27, ptr noundef nonnull @.str.31) #11
  br label %29

29:                                               ; preds = %18, %25, %16
  %.027 = phi i32 [ %23, %25 ], [ %23, %18 ], [ 0, %16 ]
  %30 = load ptr, ptr %2, align 8
  %31 = getelementptr inbounds i8, ptr %30, i64 8
  %32 = load i32, ptr %31, align 8
  %33 = add i32 %32, -2
  %34 = icmp sgt i32 %33, -1
  br i1 %34, label %.lr.ph, label %._crit_edge

.lr.ph:                                           ; preds = %29
  %35 = getelementptr inbounds i8, ptr %30, i64 432
  br label %36

36:                                               ; preds = %.lr.ph, %43
  %.030 = phi i32 [ %33, %.lr.ph ], [ %44, %43 ]
  %37 = zext nneg i32 %.030 to i64
  %38 = getelementptr inbounds [33 x i64], ptr %17, i64 0, i64 %37
  %39 = load i64, ptr %38, align 8
  %40 = add i64 %39, 1
  store i64 %40, ptr %38, align 8
  %41 = getelementptr inbounds [33 x i64], ptr %35, i64 0, i64 %37
  %42 = load i64, ptr %41, align 8
  %.not29 = icmp ult i64 %40, %42
  br i1 %.not29, label %._crit_edge, label %43

43:                                               ; preds = %36
  store i64 0, ptr %38, align 8
  %44 = add nsw i32 %.030, -1
  %45 = icmp sgt i32 %.030, 0
  br i1 %45, label %36, label %._crit_edge

._crit_edge:                                      ; preds = %43, %36, %29
  ret i32 %.027
}